; Function Attrs: mustprogress uwtable
define void @_ZN32pxrInternal_v0_24__pxrReserved__33UsdUtils_AssetLocalizationPackage15_RemapAssetPathERKNS_8TfRefPtrINS_8SdfLayerEEERKNSt7__cxx1112basic_stringIcSt11char_traitsIcESaIcEEEb(ptr dead_on_unwind noalias writable sret(%"class.std::__cxx11::basic_string") align 8 %0, ptr noundef nonnull align 8 dereferenceable(640) %1, ptr nocapture nonnull readnone align 8 %2, ptr noundef nonnull align 8 dereferenceable(32) %3, i1 noundef zeroext %4) unnamed_addr #0 align 2 {
  br i1 %4, label %6, label %7

6:                                                ; preds = %5
  tail call void @_ZNSt7__cxx1112basic_stringIcSt11char_traitsIcESaIcEEC1ERKS4_(ptr noundef nonnull align 8 dereferenceable(32) %0, ptr noundef nonnull align 8 dereferenceable(32) %3)
  br label %9

7:                                                ; preds = %5
  %8 = getelementptr inbounds nuw i8, ptr %1, i64 576
  tail call void @_ZN32pxrInternal_v0_24__pxrReserved__26UsdUtils_DirectoryRemapper5RemapERKNSt7__cxx1112basic_stringIcSt11char_traitsIcESaIcEEE(ptr dead_on_unwind writable sret(%"class.std::__cxx11::basic_string") align 8 %0, ptr noundef nonnull align 8 dereferenceable(64) %8, ptr noundef nonnull align 8 dereferenceable(32) %3)
  br label %9

9:                                                ; preds = %7, %6
  ret void
}